(i__main__
LogFile
p0
(dp1
S'_installed_files'
p2
(dp3
S'../../../TauEmbdVal/x86_64-slc6-gcc48-opt/libTauEmbdVal.so'
p4
S'../../InstallArea/x86_64-slc6-gcc48-opt/lib/libTauEmbdVal.so'
p5
sS'../../TauEmbdVal/genConf/TauEmbdVal'
p6
(dp7
S'../../../TauEmbdVal/genConf/TauEmbdVal/TauEmbdValConf.py'
p8
S'../../InstallArea/python/TauEmbdVal/TauEmbdValConf.py'
p9
ssS'../../../TauEmbdVal/x86_64-slc6-gcc48-opt/libTauEmbdVal.so.debug'
p10
S'../../InstallArea/x86_64-slc6-gcc48-opt/lib/libTauEmbdVal.so.debug'
p11
ssb.