(i__main__
LogFile
p0
(dp1
S'_installed_files'
p2
(dp3
S'../../../../../../../cvmfs/atlas.cern.ch/repo/sw/software/AthAnalysisBase/x86_64-slc6-gcc48-opt/2.3.25/GAUDI/v26r2-lcg78/GaudiPolicy/cmt/fragments/__init__.py'
p4
S'../../InstallArea/python/TauEmbdVal/__init__.py'
p5
sS'../../../TauEmbdVal/x86_64-slc6-gcc48-opt/libTauEmbdVal.so'
p6
S'../../InstallArea/x86_64-slc6-gcc48-opt/lib/libTauEmbdVal.so'
p7
sS'../../TauEmbdVal/genConf/TauEmbdVal'
p8
(dp9
S'../../../TauEmbdVal/genConf/TauEmbdVal/TauEmbdValConf.py'
p10
S'../../InstallArea/python/TauEmbdVal/TauEmbdValConf.py'
p11
ssS'../../../TauEmbdVal/x86_64-slc6-gcc48-opt/libTauEmbdVal.so.debug'
p12
S'../../InstallArea/x86_64-slc6-gcc48-opt/lib/libTauEmbdVal.so.debug'
p13
ssb.